
SPI.elf:     file format elf32-avr

Sections:
Idx Name          Size      VMA       LMA       File off  Algn
  0 .text         00000786  00000000  00000000  00000094  2**1
                  CONTENTS, ALLOC, LOAD, READONLY, CODE
  1 .data         00000018  00800060  00000786  0000081a  2**0
                  CONTENTS, ALLOC, LOAD, DATA
  2 .bss          00000002  00800078  00800078  00000832  2**0
                  ALLOC
  3 .stab         00000954  00000000  00000000  00000834  2**2
                  CONTENTS, READONLY, DEBUGGING
  4 .stabstr      0000060a  00000000  00000000  00001188  2**0
                  CONTENTS, READONLY, DEBUGGING

Disassembly of section .text:

00000000 <__vectors>:
   0:	0c 94 2a 00 	jmp	0x54	; 0x54 <__ctors_end>
   4:	0c 94 47 00 	jmp	0x8e	; 0x8e <__bad_interrupt>
   8:	0c 94 47 00 	jmp	0x8e	; 0x8e <__bad_interrupt>
   c:	0c 94 47 00 	jmp	0x8e	; 0x8e <__bad_interrupt>
  10:	0c 94 47 00 	jmp	0x8e	; 0x8e <__bad_interrupt>
  14:	0c 94 47 00 	jmp	0x8e	; 0x8e <__bad_interrupt>
  18:	0c 94 47 00 	jmp	0x8e	; 0x8e <__bad_interrupt>
  1c:	0c 94 47 00 	jmp	0x8e	; 0x8e <__bad_interrupt>
  20:	0c 94 47 00 	jmp	0x8e	; 0x8e <__bad_interrupt>
  24:	0c 94 47 00 	jmp	0x8e	; 0x8e <__bad_interrupt>
  28:	0c 94 47 00 	jmp	0x8e	; 0x8e <__bad_interrupt>
  2c:	0c 94 47 00 	jmp	0x8e	; 0x8e <__bad_interrupt>
  30:	0c 94 89 03 	jmp	0x712	; 0x712 <__vector_12>
  34:	0c 94 47 00 	jmp	0x8e	; 0x8e <__bad_interrupt>
  38:	0c 94 47 00 	jmp	0x8e	; 0x8e <__bad_interrupt>
  3c:	0c 94 47 00 	jmp	0x8e	; 0x8e <__bad_interrupt>
  40:	0c 94 47 00 	jmp	0x8e	; 0x8e <__bad_interrupt>
  44:	0c 94 47 00 	jmp	0x8e	; 0x8e <__bad_interrupt>
  48:	0c 94 47 00 	jmp	0x8e	; 0x8e <__bad_interrupt>
  4c:	0c 94 47 00 	jmp	0x8e	; 0x8e <__bad_interrupt>
  50:	0c 94 47 00 	jmp	0x8e	; 0x8e <__bad_interrupt>

00000054 <__ctors_end>:
  54:	11 24       	eor	r1, r1
  56:	1f be       	out	0x3f, r1	; 63
  58:	cf e5       	ldi	r28, 0x5F	; 95
  5a:	d8 e0       	ldi	r29, 0x08	; 8
  5c:	de bf       	out	0x3e, r29	; 62
  5e:	cd bf       	out	0x3d, r28	; 61

00000060 <__do_copy_data>:
  60:	10 e0       	ldi	r17, 0x00	; 0
  62:	a0 e6       	ldi	r26, 0x60	; 96
  64:	b0 e0       	ldi	r27, 0x00	; 0
  66:	e6 e8       	ldi	r30, 0x86	; 134
  68:	f7 e0       	ldi	r31, 0x07	; 7
  6a:	02 c0       	rjmp	.+4      	; 0x70 <.do_copy_data_start>

0000006c <.do_copy_data_loop>:
  6c:	05 90       	lpm	r0, Z+
  6e:	0d 92       	st	X+, r0

00000070 <.do_copy_data_start>:
  70:	a8 37       	cpi	r26, 0x78	; 120
  72:	b1 07       	cpc	r27, r17
  74:	d9 f7       	brne	.-10     	; 0x6c <.do_copy_data_loop>

00000076 <__do_clear_bss>:
  76:	10 e0       	ldi	r17, 0x00	; 0
  78:	a8 e7       	ldi	r26, 0x78	; 120
  7a:	b0 e0       	ldi	r27, 0x00	; 0
  7c:	01 c0       	rjmp	.+2      	; 0x80 <.do_clear_bss_start>

0000007e <.do_clear_bss_loop>:
  7e:	1d 92       	st	X+, r1

00000080 <.do_clear_bss_start>:
  80:	aa 37       	cpi	r26, 0x7A	; 122
  82:	b1 07       	cpc	r27, r17
  84:	e1 f7       	brne	.-8      	; 0x7e <.do_clear_bss_loop>
  86:	0e 94 bc 03 	call	0x778	; 0x778 <main>
  8a:	0c 94 c1 03 	jmp	0x782	; 0x782 <_exit>

0000008e <__bad_interrupt>:
  8e:	0c 94 00 00 	jmp	0	; 0x0 <__vectors>

00000092 <DIO_void_set_port_dir>:


/* implementing the driver functions  */
/* set Portx Direction Function       */

void DIO_void_set_port_dir(u8 copy_u8_portID, u8 port_copy_dir){
  92:	df 93       	push	r29
  94:	cf 93       	push	r28
  96:	00 d0       	rcall	.+0      	; 0x98 <DIO_void_set_port_dir+0x6>
  98:	cd b7       	in	r28, 0x3d	; 61
  9a:	de b7       	in	r29, 0x3e	; 62
  9c:	89 83       	std	Y+1, r24	; 0x01
  9e:	6a 83       	std	Y+2, r22	; 0x02
	 *  Also general rule INPUT --> 0 // OUTPUT --> 1
	 *
	 *
	 */

	*(DIO_DDRx[copy_u8_portID]) = port_copy_dir;
  a0:	89 81       	ldd	r24, Y+1	; 0x01
  a2:	88 2f       	mov	r24, r24
  a4:	90 e0       	ldi	r25, 0x00	; 0
  a6:	88 0f       	add	r24, r24
  a8:	99 1f       	adc	r25, r25
  aa:	fc 01       	movw	r30, r24
  ac:	e8 59       	subi	r30, 0x98	; 152
  ae:	ff 4f       	sbci	r31, 0xFF	; 255
  b0:	01 90       	ld	r0, Z+
  b2:	f0 81       	ld	r31, Z
  b4:	e0 2d       	mov	r30, r0
  b6:	8a 81       	ldd	r24, Y+2	; 0x02
  b8:	80 83       	st	Z, r24

}
  ba:	0f 90       	pop	r0
  bc:	0f 90       	pop	r0
  be:	cf 91       	pop	r28
  c0:	df 91       	pop	r29
  c2:	08 95       	ret

000000c4 <DIO_void_set_pin_dir>:

void DIO_void_set_pin_dir(u8 copy_u8_portID, u8 copy_u8_pinID, u8 pin_copy_dir){
  c4:	df 93       	push	r29
  c6:	cf 93       	push	r28
  c8:	00 d0       	rcall	.+0      	; 0xca <DIO_void_set_pin_dir+0x6>
  ca:	0f 92       	push	r0
  cc:	cd b7       	in	r28, 0x3d	; 61
  ce:	de b7       	in	r29, 0x3e	; 62
  d0:	89 83       	std	Y+1, r24	; 0x01
  d2:	6a 83       	std	Y+2, r22	; 0x02
  d4:	4b 83       	std	Y+3, r20	; 0x03
	 *  pin_copy_dir using the predefined macro INPUT //OUTPUT
	 *
	 *
	 */

	assign_Bit(*(DIO_DDRx[copy_u8_portID]),copy_u8_pinID,pin_copy_dir);
  d6:	8b 81       	ldd	r24, Y+3	; 0x03
  d8:	81 30       	cpi	r24, 0x01	; 1
  da:	29 f5       	brne	.+74     	; 0x126 <DIO_void_set_pin_dir+0x62>
  dc:	89 81       	ldd	r24, Y+1	; 0x01
  de:	88 2f       	mov	r24, r24
  e0:	90 e0       	ldi	r25, 0x00	; 0
  e2:	88 0f       	add	r24, r24
  e4:	99 1f       	adc	r25, r25
  e6:	fc 01       	movw	r30, r24
  e8:	e8 59       	subi	r30, 0x98	; 152
  ea:	ff 4f       	sbci	r31, 0xFF	; 255
  ec:	a0 81       	ld	r26, Z
  ee:	b1 81       	ldd	r27, Z+1	; 0x01
  f0:	89 81       	ldd	r24, Y+1	; 0x01
  f2:	88 2f       	mov	r24, r24
  f4:	90 e0       	ldi	r25, 0x00	; 0
  f6:	88 0f       	add	r24, r24
  f8:	99 1f       	adc	r25, r25
  fa:	fc 01       	movw	r30, r24
  fc:	e8 59       	subi	r30, 0x98	; 152
  fe:	ff 4f       	sbci	r31, 0xFF	; 255
 100:	01 90       	ld	r0, Z+
 102:	f0 81       	ld	r31, Z
 104:	e0 2d       	mov	r30, r0
 106:	80 81       	ld	r24, Z
 108:	48 2f       	mov	r20, r24
 10a:	8a 81       	ldd	r24, Y+2	; 0x02
 10c:	28 2f       	mov	r18, r24
 10e:	30 e0       	ldi	r19, 0x00	; 0
 110:	81 e0       	ldi	r24, 0x01	; 1
 112:	90 e0       	ldi	r25, 0x00	; 0
 114:	02 2e       	mov	r0, r18
 116:	02 c0       	rjmp	.+4      	; 0x11c <DIO_void_set_pin_dir+0x58>
 118:	88 0f       	add	r24, r24
 11a:	99 1f       	adc	r25, r25
 11c:	0a 94       	dec	r0
 11e:	e2 f7       	brpl	.-8      	; 0x118 <DIO_void_set_pin_dir+0x54>
 120:	84 2b       	or	r24, r20
 122:	8c 93       	st	X, r24
 124:	25 c0       	rjmp	.+74     	; 0x170 <DIO_void_set_pin_dir+0xac>
 126:	89 81       	ldd	r24, Y+1	; 0x01
 128:	88 2f       	mov	r24, r24
 12a:	90 e0       	ldi	r25, 0x00	; 0
 12c:	88 0f       	add	r24, r24
 12e:	99 1f       	adc	r25, r25
 130:	fc 01       	movw	r30, r24
 132:	e8 59       	subi	r30, 0x98	; 152
 134:	ff 4f       	sbci	r31, 0xFF	; 255
 136:	a0 81       	ld	r26, Z
 138:	b1 81       	ldd	r27, Z+1	; 0x01
 13a:	89 81       	ldd	r24, Y+1	; 0x01
 13c:	88 2f       	mov	r24, r24
 13e:	90 e0       	ldi	r25, 0x00	; 0
 140:	88 0f       	add	r24, r24
 142:	99 1f       	adc	r25, r25
 144:	fc 01       	movw	r30, r24
 146:	e8 59       	subi	r30, 0x98	; 152
 148:	ff 4f       	sbci	r31, 0xFF	; 255
 14a:	01 90       	ld	r0, Z+
 14c:	f0 81       	ld	r31, Z
 14e:	e0 2d       	mov	r30, r0
 150:	80 81       	ld	r24, Z
 152:	48 2f       	mov	r20, r24
 154:	8a 81       	ldd	r24, Y+2	; 0x02
 156:	28 2f       	mov	r18, r24
 158:	30 e0       	ldi	r19, 0x00	; 0
 15a:	81 e0       	ldi	r24, 0x01	; 1
 15c:	90 e0       	ldi	r25, 0x00	; 0
 15e:	02 2e       	mov	r0, r18
 160:	02 c0       	rjmp	.+4      	; 0x166 <DIO_void_set_pin_dir+0xa2>
 162:	88 0f       	add	r24, r24
 164:	99 1f       	adc	r25, r25
 166:	0a 94       	dec	r0
 168:	e2 f7       	brpl	.-8      	; 0x162 <DIO_void_set_pin_dir+0x9e>
 16a:	80 95       	com	r24
 16c:	84 23       	and	r24, r20
 16e:	8c 93       	st	X, r24

}
 170:	0f 90       	pop	r0
 172:	0f 90       	pop	r0
 174:	0f 90       	pop	r0
 176:	cf 91       	pop	r28
 178:	df 91       	pop	r29
 17a:	08 95       	ret

0000017c <DIO_void_port_pullup>:

void DIO_void_port_pullup(u8 copy_u8_portID){
 17c:	df 93       	push	r29
 17e:	cf 93       	push	r28
 180:	0f 92       	push	r0
 182:	cd b7       	in	r28, 0x3d	; 61
 184:	de b7       	in	r29, 0x3e	; 62
 186:	89 83       	std	Y+1, r24	; 0x01
	 *  so that is what the function does
	 *  using the pullup for any button prevents the floating effect
	 *
	 *
	 */
	*(DIO_DDRx[copy_u8_portID]) = INPUT;
 188:	89 81       	ldd	r24, Y+1	; 0x01
 18a:	88 2f       	mov	r24, r24
 18c:	90 e0       	ldi	r25, 0x00	; 0
 18e:	88 0f       	add	r24, r24
 190:	99 1f       	adc	r25, r25
 192:	fc 01       	movw	r30, r24
 194:	e8 59       	subi	r30, 0x98	; 152
 196:	ff 4f       	sbci	r31, 0xFF	; 255
 198:	01 90       	ld	r0, Z+
 19a:	f0 81       	ld	r31, Z
 19c:	e0 2d       	mov	r30, r0
 19e:	10 82       	st	Z, r1
	*(DIO_PORTx[copy_u8_portID]) = PORT_MAX;
 1a0:	89 81       	ldd	r24, Y+1	; 0x01
 1a2:	88 2f       	mov	r24, r24
 1a4:	90 e0       	ldi	r25, 0x00	; 0
 1a6:	88 0f       	add	r24, r24
 1a8:	99 1f       	adc	r25, r25
 1aa:	fc 01       	movw	r30, r24
 1ac:	e0 59       	subi	r30, 0x90	; 144
 1ae:	ff 4f       	sbci	r31, 0xFF	; 255
 1b0:	01 90       	ld	r0, Z+
 1b2:	f0 81       	ld	r31, Z
 1b4:	e0 2d       	mov	r30, r0
 1b6:	8f ef       	ldi	r24, 0xFF	; 255
 1b8:	80 83       	st	Z, r24
}
 1ba:	0f 90       	pop	r0
 1bc:	cf 91       	pop	r28
 1be:	df 91       	pop	r29
 1c0:	08 95       	ret

000001c2 <DIO_void_pin_pullup>:

void DIO_void_pin_pullup(u8 copy_u8_portID, u8 copy_u8_pinID){
 1c2:	df 93       	push	r29
 1c4:	cf 93       	push	r28
 1c6:	00 d0       	rcall	.+0      	; 0x1c8 <DIO_void_pin_pullup+0x6>
 1c8:	cd b7       	in	r28, 0x3d	; 61
 1ca:	de b7       	in	r29, 0x3e	; 62
 1cc:	89 83       	std	Y+1, r24	; 0x01
 1ce:	6a 83       	std	Y+2, r22	; 0x02
	/*  the function works as the one that set pullup for the whole port
	 *
	 *
	 */

	clear_Bit(*(DIO_DDRx[copy_u8_portID]),copy_u8_pinID);
 1d0:	89 81       	ldd	r24, Y+1	; 0x01
 1d2:	88 2f       	mov	r24, r24
 1d4:	90 e0       	ldi	r25, 0x00	; 0
 1d6:	88 0f       	add	r24, r24
 1d8:	99 1f       	adc	r25, r25
 1da:	fc 01       	movw	r30, r24
 1dc:	e8 59       	subi	r30, 0x98	; 152
 1de:	ff 4f       	sbci	r31, 0xFF	; 255
 1e0:	a0 81       	ld	r26, Z
 1e2:	b1 81       	ldd	r27, Z+1	; 0x01
 1e4:	89 81       	ldd	r24, Y+1	; 0x01
 1e6:	88 2f       	mov	r24, r24
 1e8:	90 e0       	ldi	r25, 0x00	; 0
 1ea:	88 0f       	add	r24, r24
 1ec:	99 1f       	adc	r25, r25
 1ee:	fc 01       	movw	r30, r24
 1f0:	e8 59       	subi	r30, 0x98	; 152
 1f2:	ff 4f       	sbci	r31, 0xFF	; 255
 1f4:	01 90       	ld	r0, Z+
 1f6:	f0 81       	ld	r31, Z
 1f8:	e0 2d       	mov	r30, r0
 1fa:	80 81       	ld	r24, Z
 1fc:	48 2f       	mov	r20, r24
 1fe:	8a 81       	ldd	r24, Y+2	; 0x02
 200:	28 2f       	mov	r18, r24
 202:	30 e0       	ldi	r19, 0x00	; 0
 204:	81 e0       	ldi	r24, 0x01	; 1
 206:	90 e0       	ldi	r25, 0x00	; 0
 208:	02 c0       	rjmp	.+4      	; 0x20e <DIO_void_pin_pullup+0x4c>
 20a:	88 0f       	add	r24, r24
 20c:	99 1f       	adc	r25, r25
 20e:	2a 95       	dec	r18
 210:	e2 f7       	brpl	.-8      	; 0x20a <DIO_void_pin_pullup+0x48>
 212:	80 95       	com	r24
 214:	84 23       	and	r24, r20
 216:	8c 93       	st	X, r24
	set_Bit(*(DIO_PORTx[copy_u8_portID]),copy_u8_pinID);
 218:	89 81       	ldd	r24, Y+1	; 0x01
 21a:	88 2f       	mov	r24, r24
 21c:	90 e0       	ldi	r25, 0x00	; 0
 21e:	88 0f       	add	r24, r24
 220:	99 1f       	adc	r25, r25
 222:	fc 01       	movw	r30, r24
 224:	e0 59       	subi	r30, 0x90	; 144
 226:	ff 4f       	sbci	r31, 0xFF	; 255
 228:	a0 81       	ld	r26, Z
 22a:	b1 81       	ldd	r27, Z+1	; 0x01
 22c:	89 81       	ldd	r24, Y+1	; 0x01
 22e:	88 2f       	mov	r24, r24
 230:	90 e0       	ldi	r25, 0x00	; 0
 232:	88 0f       	add	r24, r24
 234:	99 1f       	adc	r25, r25
 236:	fc 01       	movw	r30, r24
 238:	e0 59       	subi	r30, 0x90	; 144
 23a:	ff 4f       	sbci	r31, 0xFF	; 255
 23c:	01 90       	ld	r0, Z+
 23e:	f0 81       	ld	r31, Z
 240:	e0 2d       	mov	r30, r0
 242:	80 81       	ld	r24, Z
 244:	48 2f       	mov	r20, r24
 246:	8a 81       	ldd	r24, Y+2	; 0x02
 248:	28 2f       	mov	r18, r24
 24a:	30 e0       	ldi	r19, 0x00	; 0
 24c:	81 e0       	ldi	r24, 0x01	; 1
 24e:	90 e0       	ldi	r25, 0x00	; 0
 250:	02 2e       	mov	r0, r18
 252:	02 c0       	rjmp	.+4      	; 0x258 <DIO_void_pin_pullup+0x96>
 254:	88 0f       	add	r24, r24
 256:	99 1f       	adc	r25, r25
 258:	0a 94       	dec	r0
 25a:	e2 f7       	brpl	.-8      	; 0x254 <DIO_void_pin_pullup+0x92>
 25c:	84 2b       	or	r24, r20
 25e:	8c 93       	st	X, r24

}
 260:	0f 90       	pop	r0
 262:	0f 90       	pop	r0
 264:	cf 91       	pop	r28
 266:	df 91       	pop	r29
 268:	08 95       	ret

0000026a <DIO_void_set_port>:

void DIO_void_set_port(u8 copy_u8_portID){
 26a:	df 93       	push	r29
 26c:	cf 93       	push	r28
 26e:	0f 92       	push	r0
 270:	cd b7       	in	r28, 0x3d	; 61
 272:	de b7       	in	r29, 0x3e	; 62
 274:	89 83       	std	Y+1, r24	; 0x01
	 *
	 */



	*(DIO_PORTx[copy_u8_portID]) = PORT_MAX;
 276:	89 81       	ldd	r24, Y+1	; 0x01
 278:	88 2f       	mov	r24, r24
 27a:	90 e0       	ldi	r25, 0x00	; 0
 27c:	88 0f       	add	r24, r24
 27e:	99 1f       	adc	r25, r25
 280:	fc 01       	movw	r30, r24
 282:	e0 59       	subi	r30, 0x90	; 144
 284:	ff 4f       	sbci	r31, 0xFF	; 255
 286:	01 90       	ld	r0, Z+
 288:	f0 81       	ld	r31, Z
 28a:	e0 2d       	mov	r30, r0
 28c:	8f ef       	ldi	r24, 0xFF	; 255
 28e:	80 83       	st	Z, r24

}
 290:	0f 90       	pop	r0
 292:	cf 91       	pop	r28
 294:	df 91       	pop	r29
 296:	08 95       	ret

00000298 <DIO_void_clear_port>:

void DIO_void_clear_port(u8 copy_u8_portID){
 298:	df 93       	push	r29
 29a:	cf 93       	push	r28
 29c:	0f 92       	push	r0
 29e:	cd b7       	in	r28, 0x3d	; 61
 2a0:	de b7       	in	r29, 0x3e	; 62
 2a2:	89 83       	std	Y+1, r24	; 0x01
	 *
	 *
	 */


	*(DIO_PORTx[copy_u8_portID]) = LOW;
 2a4:	89 81       	ldd	r24, Y+1	; 0x01
 2a6:	88 2f       	mov	r24, r24
 2a8:	90 e0       	ldi	r25, 0x00	; 0
 2aa:	88 0f       	add	r24, r24
 2ac:	99 1f       	adc	r25, r25
 2ae:	fc 01       	movw	r30, r24
 2b0:	e0 59       	subi	r30, 0x90	; 144
 2b2:	ff 4f       	sbci	r31, 0xFF	; 255
 2b4:	01 90       	ld	r0, Z+
 2b6:	f0 81       	ld	r31, Z
 2b8:	e0 2d       	mov	r30, r0
 2ba:	10 82       	st	Z, r1

}
 2bc:	0f 90       	pop	r0
 2be:	cf 91       	pop	r28
 2c0:	df 91       	pop	r29
 2c2:	08 95       	ret

000002c4 <DIO_void_assign_port>:

void DIO_void_assign_port(u8 copy_u8_portID, u8 copy_value){
 2c4:	df 93       	push	r29
 2c6:	cf 93       	push	r28
 2c8:	00 d0       	rcall	.+0      	; 0x2ca <DIO_void_assign_port+0x6>
 2ca:	cd b7       	in	r28, 0x3d	; 61
 2cc:	de b7       	in	r29, 0x3e	; 62
 2ce:	89 83       	std	Y+1, r24	; 0x01
 2d0:	6a 83       	std	Y+2, r22	; 0x02
	 *
	 */



	*(DIO_PORTx[copy_u8_portID]) = copy_value;
 2d2:	89 81       	ldd	r24, Y+1	; 0x01
 2d4:	88 2f       	mov	r24, r24
 2d6:	90 e0       	ldi	r25, 0x00	; 0
 2d8:	88 0f       	add	r24, r24
 2da:	99 1f       	adc	r25, r25
 2dc:	fc 01       	movw	r30, r24
 2de:	e0 59       	subi	r30, 0x90	; 144
 2e0:	ff 4f       	sbci	r31, 0xFF	; 255
 2e2:	01 90       	ld	r0, Z+
 2e4:	f0 81       	ld	r31, Z
 2e6:	e0 2d       	mov	r30, r0
 2e8:	8a 81       	ldd	r24, Y+2	; 0x02
 2ea:	80 83       	st	Z, r24

}
 2ec:	0f 90       	pop	r0
 2ee:	0f 90       	pop	r0
 2f0:	cf 91       	pop	r28
 2f2:	df 91       	pop	r29
 2f4:	08 95       	ret

000002f6 <DIO_void_toggle_port>:

void DIO_void_toggle_port(u8 copy_u8_portID){
 2f6:	df 93       	push	r29
 2f8:	cf 93       	push	r28
 2fa:	0f 92       	push	r0
 2fc:	cd b7       	in	r28, 0x3d	; 61
 2fe:	de b7       	in	r29, 0x3e	; 62
 300:	89 83       	std	Y+1, r24	; 0x01
	 *
	 *
	 */


	*(DIO_PORTx[copy_u8_portID]) ^= PORT_MAX;
 302:	89 81       	ldd	r24, Y+1	; 0x01
 304:	88 2f       	mov	r24, r24
 306:	90 e0       	ldi	r25, 0x00	; 0
 308:	88 0f       	add	r24, r24
 30a:	99 1f       	adc	r25, r25
 30c:	fc 01       	movw	r30, r24
 30e:	e0 59       	subi	r30, 0x90	; 144
 310:	ff 4f       	sbci	r31, 0xFF	; 255
 312:	a0 81       	ld	r26, Z
 314:	b1 81       	ldd	r27, Z+1	; 0x01
 316:	89 81       	ldd	r24, Y+1	; 0x01
 318:	88 2f       	mov	r24, r24
 31a:	90 e0       	ldi	r25, 0x00	; 0
 31c:	88 0f       	add	r24, r24
 31e:	99 1f       	adc	r25, r25
 320:	fc 01       	movw	r30, r24
 322:	e0 59       	subi	r30, 0x90	; 144
 324:	ff 4f       	sbci	r31, 0xFF	; 255
 326:	01 90       	ld	r0, Z+
 328:	f0 81       	ld	r31, Z
 32a:	e0 2d       	mov	r30, r0
 32c:	80 81       	ld	r24, Z
 32e:	80 95       	com	r24
 330:	8c 93       	st	X, r24
}
 332:	0f 90       	pop	r0
 334:	cf 91       	pop	r28
 336:	df 91       	pop	r29
 338:	08 95       	ret

0000033a <DIO_void_set_pin>:

void DIO_void_set_pin(u8 copy_u8_portID , u8 copy_u8_pinID){
 33a:	df 93       	push	r29
 33c:	cf 93       	push	r28
 33e:	00 d0       	rcall	.+0      	; 0x340 <DIO_void_set_pin+0x6>
 340:	cd b7       	in	r28, 0x3d	; 61
 342:	de b7       	in	r29, 0x3e	; 62
 344:	89 83       	std	Y+1, r24	; 0x01
 346:	6a 83       	std	Y+2, r22	; 0x02
	 *
	 *
	 */


	set_Bit(*(DIO_PORTx[copy_u8_portID]),copy_u8_pinID);
 348:	89 81       	ldd	r24, Y+1	; 0x01
 34a:	88 2f       	mov	r24, r24
 34c:	90 e0       	ldi	r25, 0x00	; 0
 34e:	88 0f       	add	r24, r24
 350:	99 1f       	adc	r25, r25
 352:	fc 01       	movw	r30, r24
 354:	e0 59       	subi	r30, 0x90	; 144
 356:	ff 4f       	sbci	r31, 0xFF	; 255
 358:	a0 81       	ld	r26, Z
 35a:	b1 81       	ldd	r27, Z+1	; 0x01
 35c:	89 81       	ldd	r24, Y+1	; 0x01
 35e:	88 2f       	mov	r24, r24
 360:	90 e0       	ldi	r25, 0x00	; 0
 362:	88 0f       	add	r24, r24
 364:	99 1f       	adc	r25, r25
 366:	fc 01       	movw	r30, r24
 368:	e0 59       	subi	r30, 0x90	; 144
 36a:	ff 4f       	sbci	r31, 0xFF	; 255
 36c:	01 90       	ld	r0, Z+
 36e:	f0 81       	ld	r31, Z
 370:	e0 2d       	mov	r30, r0
 372:	80 81       	ld	r24, Z
 374:	48 2f       	mov	r20, r24
 376:	8a 81       	ldd	r24, Y+2	; 0x02
 378:	28 2f       	mov	r18, r24
 37a:	30 e0       	ldi	r19, 0x00	; 0
 37c:	81 e0       	ldi	r24, 0x01	; 1
 37e:	90 e0       	ldi	r25, 0x00	; 0
 380:	02 2e       	mov	r0, r18
 382:	02 c0       	rjmp	.+4      	; 0x388 <DIO_void_set_pin+0x4e>
 384:	88 0f       	add	r24, r24
 386:	99 1f       	adc	r25, r25
 388:	0a 94       	dec	r0
 38a:	e2 f7       	brpl	.-8      	; 0x384 <DIO_void_set_pin+0x4a>
 38c:	84 2b       	or	r24, r20
 38e:	8c 93       	st	X, r24
}
 390:	0f 90       	pop	r0
 392:	0f 90       	pop	r0
 394:	cf 91       	pop	r28
 396:	df 91       	pop	r29
 398:	08 95       	ret

0000039a <DIO_void_clear_pin>:

void DIO_void_clear_pin(u8 copy_u8_portID , u8 copy_u8_pinID){
 39a:	df 93       	push	r29
 39c:	cf 93       	push	r28
 39e:	00 d0       	rcall	.+0      	; 0x3a0 <DIO_void_clear_pin+0x6>
 3a0:	cd b7       	in	r28, 0x3d	; 61
 3a2:	de b7       	in	r29, 0x3e	; 62
 3a4:	89 83       	std	Y+1, r24	; 0x01
 3a6:	6a 83       	std	Y+2, r22	; 0x02
	 *
	 *
	 */


	clear_Bit(*(DIO_PORTx[copy_u8_portID]),copy_u8_pinID);
 3a8:	89 81       	ldd	r24, Y+1	; 0x01
 3aa:	88 2f       	mov	r24, r24
 3ac:	90 e0       	ldi	r25, 0x00	; 0
 3ae:	88 0f       	add	r24, r24
 3b0:	99 1f       	adc	r25, r25
 3b2:	fc 01       	movw	r30, r24
 3b4:	e0 59       	subi	r30, 0x90	; 144
 3b6:	ff 4f       	sbci	r31, 0xFF	; 255
 3b8:	a0 81       	ld	r26, Z
 3ba:	b1 81       	ldd	r27, Z+1	; 0x01
 3bc:	89 81       	ldd	r24, Y+1	; 0x01
 3be:	88 2f       	mov	r24, r24
 3c0:	90 e0       	ldi	r25, 0x00	; 0
 3c2:	88 0f       	add	r24, r24
 3c4:	99 1f       	adc	r25, r25
 3c6:	fc 01       	movw	r30, r24
 3c8:	e0 59       	subi	r30, 0x90	; 144
 3ca:	ff 4f       	sbci	r31, 0xFF	; 255
 3cc:	01 90       	ld	r0, Z+
 3ce:	f0 81       	ld	r31, Z
 3d0:	e0 2d       	mov	r30, r0
 3d2:	80 81       	ld	r24, Z
 3d4:	48 2f       	mov	r20, r24
 3d6:	8a 81       	ldd	r24, Y+2	; 0x02
 3d8:	28 2f       	mov	r18, r24
 3da:	30 e0       	ldi	r19, 0x00	; 0
 3dc:	81 e0       	ldi	r24, 0x01	; 1
 3de:	90 e0       	ldi	r25, 0x00	; 0
 3e0:	02 2e       	mov	r0, r18
 3e2:	02 c0       	rjmp	.+4      	; 0x3e8 <DIO_void_clear_pin+0x4e>
 3e4:	88 0f       	add	r24, r24
 3e6:	99 1f       	adc	r25, r25
 3e8:	0a 94       	dec	r0
 3ea:	e2 f7       	brpl	.-8      	; 0x3e4 <DIO_void_clear_pin+0x4a>
 3ec:	80 95       	com	r24
 3ee:	84 23       	and	r24, r20
 3f0:	8c 93       	st	X, r24
}
 3f2:	0f 90       	pop	r0
 3f4:	0f 90       	pop	r0
 3f6:	cf 91       	pop	r28
 3f8:	df 91       	pop	r29
 3fa:	08 95       	ret

000003fc <DIO_void_assign_pin>:

void DIO_void_assign_pin(u8 copy_u8_portID,u8 copy_u8_pinID ,u8 copy_value){
 3fc:	df 93       	push	r29
 3fe:	cf 93       	push	r28
 400:	00 d0       	rcall	.+0      	; 0x402 <DIO_void_assign_pin+0x6>
 402:	0f 92       	push	r0
 404:	cd b7       	in	r28, 0x3d	; 61
 406:	de b7       	in	r29, 0x3e	; 62
 408:	89 83       	std	Y+1, r24	; 0x01
 40a:	6a 83       	std	Y+2, r22	; 0x02
 40c:	4b 83       	std	Y+3, r20	; 0x03
	 *
	 */



	assign_Bit(*(DIO_PORTx[copy_u8_portID]),copy_u8_pinID,copy_value);
 40e:	8b 81       	ldd	r24, Y+3	; 0x03
 410:	81 30       	cpi	r24, 0x01	; 1
 412:	29 f5       	brne	.+74     	; 0x45e <DIO_void_assign_pin+0x62>
 414:	89 81       	ldd	r24, Y+1	; 0x01
 416:	88 2f       	mov	r24, r24
 418:	90 e0       	ldi	r25, 0x00	; 0
 41a:	88 0f       	add	r24, r24
 41c:	99 1f       	adc	r25, r25
 41e:	fc 01       	movw	r30, r24
 420:	e0 59       	subi	r30, 0x90	; 144
 422:	ff 4f       	sbci	r31, 0xFF	; 255
 424:	a0 81       	ld	r26, Z
 426:	b1 81       	ldd	r27, Z+1	; 0x01
 428:	89 81       	ldd	r24, Y+1	; 0x01
 42a:	88 2f       	mov	r24, r24
 42c:	90 e0       	ldi	r25, 0x00	; 0
 42e:	88 0f       	add	r24, r24
 430:	99 1f       	adc	r25, r25
 432:	fc 01       	movw	r30, r24
 434:	e0 59       	subi	r30, 0x90	; 144
 436:	ff 4f       	sbci	r31, 0xFF	; 255
 438:	01 90       	ld	r0, Z+
 43a:	f0 81       	ld	r31, Z
 43c:	e0 2d       	mov	r30, r0
 43e:	80 81       	ld	r24, Z
 440:	48 2f       	mov	r20, r24
 442:	8a 81       	ldd	r24, Y+2	; 0x02
 444:	28 2f       	mov	r18, r24
 446:	30 e0       	ldi	r19, 0x00	; 0
 448:	81 e0       	ldi	r24, 0x01	; 1
 44a:	90 e0       	ldi	r25, 0x00	; 0
 44c:	02 2e       	mov	r0, r18
 44e:	02 c0       	rjmp	.+4      	; 0x454 <DIO_void_assign_pin+0x58>
 450:	88 0f       	add	r24, r24
 452:	99 1f       	adc	r25, r25
 454:	0a 94       	dec	r0
 456:	e2 f7       	brpl	.-8      	; 0x450 <DIO_void_assign_pin+0x54>
 458:	84 2b       	or	r24, r20
 45a:	8c 93       	st	X, r24
 45c:	25 c0       	rjmp	.+74     	; 0x4a8 <DIO_void_assign_pin+0xac>
 45e:	89 81       	ldd	r24, Y+1	; 0x01
 460:	88 2f       	mov	r24, r24
 462:	90 e0       	ldi	r25, 0x00	; 0
 464:	88 0f       	add	r24, r24
 466:	99 1f       	adc	r25, r25
 468:	fc 01       	movw	r30, r24
 46a:	e0 59       	subi	r30, 0x90	; 144
 46c:	ff 4f       	sbci	r31, 0xFF	; 255
 46e:	a0 81       	ld	r26, Z
 470:	b1 81       	ldd	r27, Z+1	; 0x01
 472:	89 81       	ldd	r24, Y+1	; 0x01
 474:	88 2f       	mov	r24, r24
 476:	90 e0       	ldi	r25, 0x00	; 0
 478:	88 0f       	add	r24, r24
 47a:	99 1f       	adc	r25, r25
 47c:	fc 01       	movw	r30, r24
 47e:	e0 59       	subi	r30, 0x90	; 144
 480:	ff 4f       	sbci	r31, 0xFF	; 255
 482:	01 90       	ld	r0, Z+
 484:	f0 81       	ld	r31, Z
 486:	e0 2d       	mov	r30, r0
 488:	80 81       	ld	r24, Z
 48a:	48 2f       	mov	r20, r24
 48c:	8a 81       	ldd	r24, Y+2	; 0x02
 48e:	28 2f       	mov	r18, r24
 490:	30 e0       	ldi	r19, 0x00	; 0
 492:	81 e0       	ldi	r24, 0x01	; 1
 494:	90 e0       	ldi	r25, 0x00	; 0
 496:	02 2e       	mov	r0, r18
 498:	02 c0       	rjmp	.+4      	; 0x49e <DIO_void_assign_pin+0xa2>
 49a:	88 0f       	add	r24, r24
 49c:	99 1f       	adc	r25, r25
 49e:	0a 94       	dec	r0
 4a0:	e2 f7       	brpl	.-8      	; 0x49a <DIO_void_assign_pin+0x9e>
 4a2:	80 95       	com	r24
 4a4:	84 23       	and	r24, r20
 4a6:	8c 93       	st	X, r24
}
 4a8:	0f 90       	pop	r0
 4aa:	0f 90       	pop	r0
 4ac:	0f 90       	pop	r0
 4ae:	cf 91       	pop	r28
 4b0:	df 91       	pop	r29
 4b2:	08 95       	ret

000004b4 <DIO_void_toggle_pin>:

void DIO_void_toggle_pin(u8 copy_u8_portID , u8 copy_u8_pinID){
 4b4:	df 93       	push	r29
 4b6:	cf 93       	push	r28
 4b8:	00 d0       	rcall	.+0      	; 0x4ba <DIO_void_toggle_pin+0x6>
 4ba:	cd b7       	in	r28, 0x3d	; 61
 4bc:	de b7       	in	r29, 0x3e	; 62
 4be:	89 83       	std	Y+1, r24	; 0x01
 4c0:	6a 83       	std	Y+2, r22	; 0x02
	 *
	 *
	 */


	toggle_Bit(*(DIO_PORTx[copy_u8_portID]),copy_u8_pinID);
 4c2:	89 81       	ldd	r24, Y+1	; 0x01
 4c4:	88 2f       	mov	r24, r24
 4c6:	90 e0       	ldi	r25, 0x00	; 0
 4c8:	88 0f       	add	r24, r24
 4ca:	99 1f       	adc	r25, r25
 4cc:	fc 01       	movw	r30, r24
 4ce:	e0 59       	subi	r30, 0x90	; 144
 4d0:	ff 4f       	sbci	r31, 0xFF	; 255
 4d2:	a0 81       	ld	r26, Z
 4d4:	b1 81       	ldd	r27, Z+1	; 0x01
 4d6:	89 81       	ldd	r24, Y+1	; 0x01
 4d8:	88 2f       	mov	r24, r24
 4da:	90 e0       	ldi	r25, 0x00	; 0
 4dc:	88 0f       	add	r24, r24
 4de:	99 1f       	adc	r25, r25
 4e0:	fc 01       	movw	r30, r24
 4e2:	e0 59       	subi	r30, 0x90	; 144
 4e4:	ff 4f       	sbci	r31, 0xFF	; 255
 4e6:	01 90       	ld	r0, Z+
 4e8:	f0 81       	ld	r31, Z
 4ea:	e0 2d       	mov	r30, r0
 4ec:	80 81       	ld	r24, Z
 4ee:	48 2f       	mov	r20, r24
 4f0:	8a 81       	ldd	r24, Y+2	; 0x02
 4f2:	28 2f       	mov	r18, r24
 4f4:	30 e0       	ldi	r19, 0x00	; 0
 4f6:	81 e0       	ldi	r24, 0x01	; 1
 4f8:	90 e0       	ldi	r25, 0x00	; 0
 4fa:	02 2e       	mov	r0, r18
 4fc:	02 c0       	rjmp	.+4      	; 0x502 <DIO_void_toggle_pin+0x4e>
 4fe:	88 0f       	add	r24, r24
 500:	99 1f       	adc	r25, r25
 502:	0a 94       	dec	r0
 504:	e2 f7       	brpl	.-8      	; 0x4fe <DIO_void_toggle_pin+0x4a>
 506:	84 27       	eor	r24, r20
 508:	8c 93       	st	X, r24

}
 50a:	0f 90       	pop	r0
 50c:	0f 90       	pop	r0
 50e:	cf 91       	pop	r28
 510:	df 91       	pop	r29
 512:	08 95       	ret

00000514 <DIO_u8_get_port>:

u8 DIO_u8_get_port(u8 copy_u8_portID){
 514:	df 93       	push	r29
 516:	cf 93       	push	r28
 518:	0f 92       	push	r0
 51a:	cd b7       	in	r28, 0x3d	; 61
 51c:	de b7       	in	r29, 0x3e	; 62
 51e:	89 83       	std	Y+1, r24	; 0x01
	 *  1 byte data
	 */



	return *(DIO_PINx[copy_u8_portID]);
 520:	89 81       	ldd	r24, Y+1	; 0x01
 522:	88 2f       	mov	r24, r24
 524:	90 e0       	ldi	r25, 0x00	; 0
 526:	88 0f       	add	r24, r24
 528:	99 1f       	adc	r25, r25
 52a:	fc 01       	movw	r30, r24
 52c:	e0 5a       	subi	r30, 0xA0	; 160
 52e:	ff 4f       	sbci	r31, 0xFF	; 255
 530:	01 90       	ld	r0, Z+
 532:	f0 81       	ld	r31, Z
 534:	e0 2d       	mov	r30, r0
 536:	80 81       	ld	r24, Z
}
 538:	0f 90       	pop	r0
 53a:	cf 91       	pop	r28
 53c:	df 91       	pop	r29
 53e:	08 95       	ret

00000540 <DIO_u8_get_pin>:

u8 DIO_u8_get_pin(u8 copy_u8_portID, u8 copy_u8_pinID){
 540:	df 93       	push	r29
 542:	cf 93       	push	r28
 544:	00 d0       	rcall	.+0      	; 0x546 <DIO_u8_get_pin+0x6>
 546:	cd b7       	in	r28, 0x3d	; 61
 548:	de b7       	in	r29, 0x3e	; 62
 54a:	89 83       	std	Y+1, r24	; 0x01
 54c:	6a 83       	std	Y+2, r22	; 0x02
	 *
	 *
	 */


	return get_Bit(*(DIO_PINx[copy_u8_portID]),copy_u8_pinID);
 54e:	89 81       	ldd	r24, Y+1	; 0x01
 550:	88 2f       	mov	r24, r24
 552:	90 e0       	ldi	r25, 0x00	; 0
 554:	88 0f       	add	r24, r24
 556:	99 1f       	adc	r25, r25
 558:	fc 01       	movw	r30, r24
 55a:	e0 5a       	subi	r30, 0xA0	; 160
 55c:	ff 4f       	sbci	r31, 0xFF	; 255
 55e:	01 90       	ld	r0, Z+
 560:	f0 81       	ld	r31, Z
 562:	e0 2d       	mov	r30, r0
 564:	80 81       	ld	r24, Z
 566:	28 2f       	mov	r18, r24
 568:	30 e0       	ldi	r19, 0x00	; 0
 56a:	8a 81       	ldd	r24, Y+2	; 0x02
 56c:	88 2f       	mov	r24, r24
 56e:	90 e0       	ldi	r25, 0x00	; 0
 570:	a9 01       	movw	r20, r18
 572:	02 c0       	rjmp	.+4      	; 0x578 <DIO_u8_get_pin+0x38>
 574:	55 95       	asr	r21
 576:	47 95       	ror	r20
 578:	8a 95       	dec	r24
 57a:	e2 f7       	brpl	.-8      	; 0x574 <DIO_u8_get_pin+0x34>
 57c:	ca 01       	movw	r24, r20
 57e:	81 70       	andi	r24, 0x01	; 1
}
 580:	0f 90       	pop	r0
 582:	0f 90       	pop	r0
 584:	cf 91       	pop	r28
 586:	df 91       	pop	r29
 588:	08 95       	ret

0000058a <set_Callback_function>:
#include "SPI_Interface.h"
#include "SPI_Private.h"

void(*ptr_callback_function)(void) = NULL;

void set_Callback_function(void(*ptr_function)(void)){
 58a:	df 93       	push	r29
 58c:	cf 93       	push	r28
 58e:	00 d0       	rcall	.+0      	; 0x590 <set_Callback_function+0x6>
 590:	cd b7       	in	r28, 0x3d	; 61
 592:	de b7       	in	r29, 0x3e	; 62
 594:	9a 83       	std	Y+2, r25	; 0x02
 596:	89 83       	std	Y+1, r24	; 0x01

	ptr_callback_function = ptr_function;
 598:	89 81       	ldd	r24, Y+1	; 0x01
 59a:	9a 81       	ldd	r25, Y+2	; 0x02
 59c:	90 93 79 00 	sts	0x0079, r25
 5a0:	80 93 78 00 	sts	0x0078, r24

}
 5a4:	0f 90       	pop	r0
 5a6:	0f 90       	pop	r0
 5a8:	cf 91       	pop	r28
 5aa:	df 91       	pop	r29
 5ac:	08 95       	ret

000005ae <SPI_masterInit>:

void SPI_masterInit(){
 5ae:	df 93       	push	r29
 5b0:	cf 93       	push	r28
 5b2:	cd b7       	in	r28, 0x3d	; 61
 5b4:	de b7       	in	r29, 0x3e	; 62

	// set pin direction for master

	//slave select pin
	DIO_void_set_pin_dir(SPI_REF_PORT, SS, OUTPUT);
 5b6:	81 e0       	ldi	r24, 0x01	; 1
 5b8:	64 e0       	ldi	r22, 0x04	; 4
 5ba:	41 e0       	ldi	r20, 0x01	; 1
 5bc:	0e 94 62 00 	call	0xc4	; 0xc4 <DIO_void_set_pin_dir>
	// MOSI pin
	DIO_void_set_pin_dir(SPI_REF_PORT, MOSI, OUTPUT);
 5c0:	81 e0       	ldi	r24, 0x01	; 1
 5c2:	65 e0       	ldi	r22, 0x05	; 5
 5c4:	41 e0       	ldi	r20, 0x01	; 1
 5c6:	0e 94 62 00 	call	0xc4	; 0xc4 <DIO_void_set_pin_dir>
	// MISO pin
	DIO_void_set_pin_dir(SPI_REF_PORT, MISO, INPUT);
 5ca:	81 e0       	ldi	r24, 0x01	; 1
 5cc:	66 e0       	ldi	r22, 0x06	; 6
 5ce:	40 e0       	ldi	r20, 0x00	; 0
 5d0:	0e 94 62 00 	call	0xc4	; 0xc4 <DIO_void_set_pin_dir>



#if SPI_Interrupt == Enable
	// enable SPI interrupt
	SPCR |= (1<<SPIE);
 5d4:	ad e2       	ldi	r26, 0x2D	; 45
 5d6:	b0 e0       	ldi	r27, 0x00	; 0
 5d8:	ed e2       	ldi	r30, 0x2D	; 45
 5da:	f0 e0       	ldi	r31, 0x00	; 0
 5dc:	80 81       	ld	r24, Z
 5de:	80 68       	ori	r24, 0x80	; 128
 5e0:	8c 93       	st	X, r24
	SREG |= (1<<7); // enable global interrupt
 5e2:	af e5       	ldi	r26, 0x5F	; 95
 5e4:	b0 e0       	ldi	r27, 0x00	; 0
 5e6:	ef e5       	ldi	r30, 0x5F	; 95
 5e8:	f0 e0       	ldi	r31, 0x00	; 0
 5ea:	80 81       	ld	r24, Z
 5ec:	80 68       	ori	r24, 0x80	; 128
 5ee:	8c 93       	st	X, r24

#endif

#if Data_Order == MSB

	clear_Bit(SPCR,DORD);
 5f0:	ad e2       	ldi	r26, 0x2D	; 45
 5f2:	b0 e0       	ldi	r27, 0x00	; 0
 5f4:	ed e2       	ldi	r30, 0x2D	; 45
 5f6:	f0 e0       	ldi	r31, 0x00	; 0
 5f8:	80 81       	ld	r24, Z
 5fa:	8f 7d       	andi	r24, 0xDF	; 223
 5fc:	8c 93       	st	X, r24

#endif

#if Leading_Edge_Pol == Rising

	clear_Bit(SPCR,CPOL);
 5fe:	ad e2       	ldi	r26, 0x2D	; 45
 600:	b0 e0       	ldi	r27, 0x00	; 0
 602:	ed e2       	ldi	r30, 0x2D	; 45
 604:	f0 e0       	ldi	r31, 0x00	; 0
 606:	80 81       	ld	r24, Z
 608:	87 7f       	andi	r24, 0xF7	; 247
 60a:	8c 93       	st	X, r24
	set_Bit(SPCR,CPOL);
#endif

#if Leading_Edge_Phase == sample

	clear_Bit(SPCR,CPHA);
 60c:	ad e2       	ldi	r26, 0x2D	; 45
 60e:	b0 e0       	ldi	r27, 0x00	; 0
 610:	ed e2       	ldi	r30, 0x2D	; 45
 612:	f0 e0       	ldi	r31, 0x00	; 0
 614:	80 81       	ld	r24, Z
 616:	8b 7f       	andi	r24, 0xFB	; 251
 618:	8c 93       	st	X, r24
#else
	set_Bit(SPCR,CPHA);
#endif

#if SCK_FREQ == freq_16
	clear_Bit(SPSR,SPI2X);
 61a:	ae e3       	ldi	r26, 0x3E	; 62
 61c:	b0 e0       	ldi	r27, 0x00	; 0
 61e:	ee e3       	ldi	r30, 0x3E	; 62
 620:	f0 e0       	ldi	r31, 0x00	; 0
 622:	80 81       	ld	r24, Z
 624:	8e 7f       	andi	r24, 0xFE	; 254
 626:	8c 93       	st	X, r24
	clear_Bit(SPCR,SPR1);
 628:	ad e2       	ldi	r26, 0x2D	; 45
 62a:	b0 e0       	ldi	r27, 0x00	; 0
 62c:	ed e2       	ldi	r30, 0x2D	; 45
 62e:	f0 e0       	ldi	r31, 0x00	; 0
 630:	80 81       	ld	r24, Z
 632:	8d 7f       	andi	r24, 0xFD	; 253
 634:	8c 93       	st	X, r24
	set_Bit(SPCR,SPR0);
 636:	ad e2       	ldi	r26, 0x2D	; 45
 638:	b0 e0       	ldi	r27, 0x00	; 0
 63a:	ed e2       	ldi	r30, 0x2D	; 45
 63c:	f0 e0       	ldi	r31, 0x00	; 0
 63e:	80 81       	ld	r24, Z
 640:	81 60       	ori	r24, 0x01	; 1
 642:	8c 93       	st	X, r24
#if double_Speed == Enable
	set_Bit(SPSR,SPI2X);
#endif
	//select master

	set_Bit(SPCR,MSTR);
 644:	ad e2       	ldi	r26, 0x2D	; 45
 646:	b0 e0       	ldi	r27, 0x00	; 0
 648:	ed e2       	ldi	r30, 0x2D	; 45
 64a:	f0 e0       	ldi	r31, 0x00	; 0
 64c:	80 81       	ld	r24, Z
 64e:	80 61       	ori	r24, 0x10	; 16
 650:	8c 93       	st	X, r24

	//enable SPI
	set_Bit(SPCR,SPE);
 652:	ad e2       	ldi	r26, 0x2D	; 45
 654:	b0 e0       	ldi	r27, 0x00	; 0
 656:	ed e2       	ldi	r30, 0x2D	; 45
 658:	f0 e0       	ldi	r31, 0x00	; 0
 65a:	80 81       	ld	r24, Z
 65c:	80 64       	ori	r24, 0x40	; 64
 65e:	8c 93       	st	X, r24

}
 660:	cf 91       	pop	r28
 662:	df 91       	pop	r29
 664:	08 95       	ret

00000666 <SPI_slaveInit>:



void SPI_slaveInit(){
 666:	df 93       	push	r29
 668:	cf 93       	push	r28
 66a:	cd b7       	in	r28, 0x3d	; 61
 66c:	de b7       	in	r29, 0x3e	; 62

	//configure pin for the slave
	//ss
	DIO_void_set_pin_dir(SPI_REF_PORT, SS, INPUT);
 66e:	81 e0       	ldi	r24, 0x01	; 1
 670:	64 e0       	ldi	r22, 0x04	; 4
 672:	40 e0       	ldi	r20, 0x00	; 0
 674:	0e 94 62 00 	call	0xc4	; 0xc4 <DIO_void_set_pin_dir>
	// MISO
	DIO_void_set_pin_dir(SPI_REF_PORT, MISO,OUTPUT);
 678:	81 e0       	ldi	r24, 0x01	; 1
 67a:	66 e0       	ldi	r22, 0x06	; 6
 67c:	41 e0       	ldi	r20, 0x01	; 1
 67e:	0e 94 62 00 	call	0xc4	; 0xc4 <DIO_void_set_pin_dir>
	//MOSI
	DIO_void_set_pin_dir(SPI_REF_PORT, MOSI,INPUT);
 682:	81 e0       	ldi	r24, 0x01	; 1
 684:	65 e0       	ldi	r22, 0x05	; 5
 686:	40 e0       	ldi	r20, 0x00	; 0
 688:	0e 94 62 00 	call	0xc4	; 0xc4 <DIO_void_set_pin_dir>


#if SPI_Interrupt == Enable
	// enable SPI interrupt
		SPCR |= (1<<SPIE);
 68c:	ad e2       	ldi	r26, 0x2D	; 45
 68e:	b0 e0       	ldi	r27, 0x00	; 0
 690:	ed e2       	ldi	r30, 0x2D	; 45
 692:	f0 e0       	ldi	r31, 0x00	; 0
 694:	80 81       	ld	r24, Z
 696:	80 68       	ori	r24, 0x80	; 128
 698:	8c 93       	st	X, r24
		SREG |= (1<<7); // enable global interrupt
 69a:	af e5       	ldi	r26, 0x5F	; 95
 69c:	b0 e0       	ldi	r27, 0x00	; 0
 69e:	ef e5       	ldi	r30, 0x5F	; 95
 6a0:	f0 e0       	ldi	r31, 0x00	; 0
 6a2:	80 81       	ld	r24, Z
 6a4:	80 68       	ori	r24, 0x80	; 128
 6a6:	8c 93       	st	X, r24
#endif

#if Data_Order == MSB

	clear_Bit(SPCR,DORD);
 6a8:	ad e2       	ldi	r26, 0x2D	; 45
 6aa:	b0 e0       	ldi	r27, 0x00	; 0
 6ac:	ed e2       	ldi	r30, 0x2D	; 45
 6ae:	f0 e0       	ldi	r31, 0x00	; 0
 6b0:	80 81       	ld	r24, Z
 6b2:	8f 7d       	andi	r24, 0xDF	; 223
 6b4:	8c 93       	st	X, r24

#endif

#if Leading_Edge_Pol == Rising

	clear_Bit(SPCR,CPOL);
 6b6:	ad e2       	ldi	r26, 0x2D	; 45
 6b8:	b0 e0       	ldi	r27, 0x00	; 0
 6ba:	ed e2       	ldi	r30, 0x2D	; 45
 6bc:	f0 e0       	ldi	r31, 0x00	; 0
 6be:	80 81       	ld	r24, Z
 6c0:	87 7f       	andi	r24, 0xF7	; 247
 6c2:	8c 93       	st	X, r24
	set_Bit(SPCR,CPOL);
#endif

#if Leading_Edge_Phase == sample

	clear_Bit(SPCR,CPHA);
 6c4:	ad e2       	ldi	r26, 0x2D	; 45
 6c6:	b0 e0       	ldi	r27, 0x00	; 0
 6c8:	ed e2       	ldi	r30, 0x2D	; 45
 6ca:	f0 e0       	ldi	r31, 0x00	; 0
 6cc:	80 81       	ld	r24, Z
 6ce:	8b 7f       	andi	r24, 0xFB	; 251
 6d0:	8c 93       	st	X, r24
	set_Bit(SPCR,CPHA);
#endif


	// select slave
	clear_Bit(SPCR,MSTR);
 6d2:	ad e2       	ldi	r26, 0x2D	; 45
 6d4:	b0 e0       	ldi	r27, 0x00	; 0
 6d6:	ed e2       	ldi	r30, 0x2D	; 45
 6d8:	f0 e0       	ldi	r31, 0x00	; 0
 6da:	80 81       	ld	r24, Z
 6dc:	8f 7e       	andi	r24, 0xEF	; 239
 6de:	8c 93       	st	X, r24
	//enable spi
	set_Bit(SPCR,SPE);
 6e0:	ad e2       	ldi	r26, 0x2D	; 45
 6e2:	b0 e0       	ldi	r27, 0x00	; 0
 6e4:	ed e2       	ldi	r30, 0x2D	; 45
 6e6:	f0 e0       	ldi	r31, 0x00	; 0
 6e8:	80 81       	ld	r24, Z
 6ea:	80 64       	ori	r24, 0x40	; 64
 6ec:	8c 93       	st	X, r24


}
 6ee:	cf 91       	pop	r28
 6f0:	df 91       	pop	r29
 6f2:	08 95       	ret

000006f4 <SPI_Tranciever>:


u8 SPI_Tranciever(u8 data){
 6f4:	df 93       	push	r29
 6f6:	cf 93       	push	r28
 6f8:	00 d0       	rcall	.+0      	; 0x6fa <SPI_Tranciever+0x6>
 6fa:	cd b7       	in	r28, 0x3d	; 61
 6fc:	de b7       	in	r29, 0x3e	; 62
 6fe:	89 83       	std	Y+1, r24	; 0x01
	 *
	 *
	 */
#if SPI_Interrupt == Enable

	SPDR = data;
 700:	ef e2       	ldi	r30, 0x2F	; 47
 702:	f0 e0       	ldi	r31, 0x00	; 0
 704:	89 81       	ldd	r24, Y+1	; 0x01
 706:	80 83       	st	Z, r24

		return SPDR;

#endif

}
 708:	0f 90       	pop	r0
 70a:	0f 90       	pop	r0
 70c:	cf 91       	pop	r28
 70e:	df 91       	pop	r29
 710:	08 95       	ret

00000712 <__vector_12>:


void __vector_12(){
 712:	1f 92       	push	r1
 714:	0f 92       	push	r0
 716:	0f b6       	in	r0, 0x3f	; 63
 718:	0f 92       	push	r0
 71a:	11 24       	eor	r1, r1
 71c:	2f 93       	push	r18
 71e:	3f 93       	push	r19
 720:	4f 93       	push	r20
 722:	5f 93       	push	r21
 724:	6f 93       	push	r22
 726:	7f 93       	push	r23
 728:	8f 93       	push	r24
 72a:	9f 93       	push	r25
 72c:	af 93       	push	r26
 72e:	bf 93       	push	r27
 730:	ef 93       	push	r30
 732:	ff 93       	push	r31
 734:	df 93       	push	r29
 736:	cf 93       	push	r28
 738:	cd b7       	in	r28, 0x3d	; 61
 73a:	de b7       	in	r29, 0x3e	; 62

	if(ptr_callback_function != NULL){
 73c:	80 91 78 00 	lds	r24, 0x0078
 740:	90 91 79 00 	lds	r25, 0x0079
 744:	00 97       	sbiw	r24, 0x00	; 0
 746:	29 f0       	breq	.+10     	; 0x752 <__vector_12+0x40>

		ptr_callback_function();
 748:	e0 91 78 00 	lds	r30, 0x0078
 74c:	f0 91 79 00 	lds	r31, 0x0079
 750:	09 95       	icall
	}

}
 752:	cf 91       	pop	r28
 754:	df 91       	pop	r29
 756:	ff 91       	pop	r31
 758:	ef 91       	pop	r30
 75a:	bf 91       	pop	r27
 75c:	af 91       	pop	r26
 75e:	9f 91       	pop	r25
 760:	8f 91       	pop	r24
 762:	7f 91       	pop	r23
 764:	6f 91       	pop	r22
 766:	5f 91       	pop	r21
 768:	4f 91       	pop	r20
 76a:	3f 91       	pop	r19
 76c:	2f 91       	pop	r18
 76e:	0f 90       	pop	r0
 770:	0f be       	out	0x3f, r0	; 63
 772:	0f 90       	pop	r0
 774:	1f 90       	pop	r1
 776:	18 95       	reti

00000778 <main>:
 */




int main(){
 778:	df 93       	push	r29
 77a:	cf 93       	push	r28
 77c:	cd b7       	in	r28, 0x3d	; 61
 77e:	de b7       	in	r29, 0x3e	; 62
 780:	ff cf       	rjmp	.-2      	; 0x780 <main+0x8>

00000782 <_exit>:
 782:	f8 94       	cli

00000784 <__stop_program>:
 784:	ff cf       	rjmp	.-2      	; 0x784 <__stop_program>
